target datalayout = "e-m:e-p270:32:32-p271:32:32-p272:64:64-i64:64-i128:128-f80:128-n8:16:32:64-S128"
target triple = "x86_64-pc-linux-gnu"

%struct.MEMO = type { i64, i64, i64, i64, %union.anon.17 }
%union.anon.17 = type { i64 }

; Function Attrs: inlinehint nounwind sspstrong uwtable
define internal ptr @MEMO_NEW(i64 noundef %0, i64 noundef %1, i64 noundef %2) #4 {
  %4 = alloca i64, align 8
  %5 = alloca i64, align 8
  %6 = alloca i64, align 8
  %7 = alloca ptr, align 8
  store i64 %0, ptr %4, align 8, !tbaa !7
  store i64 %1, ptr %5, align 8, !tbaa !7
  store i64 %2, ptr %6, align 8, !tbaa !7
  call void @llvm.lifetime.start.p0(i64 8, ptr %7) #23
  %8 = call i64 @rb_imemo_new(i32 noundef 5, i64 noundef 0, i64 noundef 40)
  %9 = inttoptr i64 %8 to ptr
  store ptr %9, ptr %7, align 8, !tbaa !101
  %10 = load i64, ptr %4, align 8, !tbaa !7
  %11 = load ptr, ptr %7, align 8, !tbaa !101
  %12 = getelementptr inbounds nuw %struct.MEMO, ptr %11, i32 0, i32 2
  store i64 %10, ptr %12, align 8, !tbaa !7
  %13 = load i64, ptr %5, align 8, !tbaa !7
  %14 = load ptr, ptr %7, align 8, !tbaa !101
  %15 = getelementptr inbounds nuw %struct.MEMO, ptr %14, i32 0, i32 3
  store i64 %13, ptr %15, align 8, !tbaa !7
  %16 = load i64, ptr %6, align 8, !tbaa !7
  %17 = load ptr, ptr %7, align 8, !tbaa !101
  %18 = getelementptr inbounds nuw %struct.MEMO, ptr %17, i32 0, i32 4
  store i64 %16, ptr %18, align 8, !tbaa !93
  %19 = load ptr, ptr %7, align 8, !tbaa !101
  call void @llvm.lifetime.end.p0(i64 8, ptr %7) #23
  ret ptr %19
}

; Function Attrs: inlinehint nounwind sspstrong willreturn memory(none) uwtable
define internal zeroext i1 @RB_NIL_P(i64 noundef %0) #2 {
  %2 = alloca i64, align 8
  store i64 %0, ptr %2, align 8, !tbaa !7
  %3 = load i64, ptr %2, align 8, !tbaa !7
  %4 = icmp eq i64 %3, 4
  ret i1 %4
}

; Function Attrs: nounwind sspstrong uwtable
define dso_local i64 @rb_enumeratorize_with_size(i64 noundef %0, i64 noundef %1, i32 noundef %2, ptr noundef %3, ptr noundef %4) #0 {
  %6 = alloca i64, align 8
  %7 = alloca i64, align 8
  %8 = alloca i32, align 4
  %9 = alloca ptr, align 8
  %10 = alloca ptr, align 8
  store i64 %0, ptr %6, align 8, !tbaa !7
  store i64 %1, ptr %7, align 8, !tbaa !7
  store i32 %2, ptr %8, align 4, !tbaa !11
  store ptr %3, ptr %9, align 8, !tbaa !13
  store ptr %4, ptr %10, align 8, !tbaa !16
  %11 = load i64, ptr %6, align 8, !tbaa !7
  %12 = load i64, ptr %7, align 8, !tbaa !7
  %13 = load i32, ptr %8, align 4, !tbaa !11
  %14 = load ptr, ptr %9, align 8, !tbaa !13
  %15 = load ptr, ptr %10, align 8, !tbaa !16
  %16 = call i32 @rb_keyword_given_p()
  %17 = call i64 @rb_enumeratorize_with_size_kw(i64 noundef %11, i64 noundef %12, i32 noundef %13, ptr noundef %14, ptr noundef %15, i32 noundef %16)
  ret i64 %17
}

; Function Attrs: inlinehint nounwind sspstrong uwtable
define internal i32 @rb_check_arity(i32 noundef %0, i32 noundef %1, i32 noundef %2) #4 {
  %4 = alloca i32, align 4
  %5 = alloca i32, align 4
  %6 = alloca i32, align 4
  store i32 %0, ptr %4, align 4, !tbaa !11
  store i32 %1, ptr %5, align 4, !tbaa !11
  store i32 %2, ptr %6, align 4, !tbaa !11
  %7 = load i32, ptr %4, align 4, !tbaa !11
  %8 = load i32, ptr %5, align 4, !tbaa !11
  %9 = icmp slt i32 %7, %8
  br i1 %9, label %17, label %10

10:                                               ; preds = %3
  %11 = load i32, ptr %6, align 4, !tbaa !11
  %12 = icmp ne i32 %11, -1
  br i1 %12, label %13, label %21

13:                                               ; preds = %10
  %14 = load i32, ptr %4, align 4, !tbaa !11
  %15 = load i32, ptr %6, align 4, !tbaa !11
  %16 = icmp sgt i32 %14, %15
  br i1 %16, label %17, label %21

17:                                               ; preds = %13, %3
  %18 = load i32, ptr %4, align 4, !tbaa !11
  %19 = load i32, ptr %5, align 4, !tbaa !11
  %20 = load i32, ptr %6, align 4, !tbaa !11
  call void @rb_error_arity(i32 noundef %18, i32 noundef %19, i32 noundef %20) #25
  unreachable

21:                                               ; preds = %13, %10
  %22 = load i32, ptr %4, align 4, !tbaa !11
  ret i32 %22
}

; Function Attrs: nounwind sspstrong uwtable
define internal i64 @enumerator_with_index(i32 noundef %0, ptr noundef %1, i64 noundef %2) #0 {
  %4 = alloca i64, align 8
  %5 = alloca i32, align 4
  %6 = alloca ptr, align 8
  %7 = alloca i64, align 8
  %8 = alloca i64, align 8
  %9 = alloca i32, align 4
  store i32 %0, ptr %5, align 4, !tbaa !11
  store ptr %1, ptr %6, align 8, !tbaa !13
  store i64 %2, ptr %7, align 8, !tbaa !7
  call void @llvm.lifetime.start.p0(i64 8, ptr %8) #23
  %10 = load i32, ptr %5, align 4, !tbaa !11
  %11 = call i32 @rb_check_arity(i32 noundef %10, i32 noundef 0, i32 noundef 1)
  br label %12

12:                                               ; preds = %3
  %13 = call i32 @rb_block_given_p()
  %14 = icmp ne i32 %13, 0
  br i1 %14, label %22, label %15

15:                                               ; preds = %12
  %16 = load i64, ptr %7, align 8, !tbaa !7
  %17 = call i64 @rb_frame_this_func()
  %18 = call i64 @rb_id2sym(i64 noundef %17)
  %19 = load i32, ptr %5, align 4, !tbaa !11
  %20 = load ptr, ptr %6, align 8, !tbaa !13
  %21 = call i64 @rb_enumeratorize_with_size(i64 noundef %16, i64 noundef %18, i32 noundef %19, ptr noundef %20, ptr noundef @enumerator_enum_size)
  store i64 %21, ptr %4, align 8
  store i32 1, ptr %9, align 4
  br label %43

22:                                               ; preds = %12
  br label %23

23:                                               ; preds = %22
  br label %24

24:                                               ; preds = %23
  %25 = load i32, ptr %5, align 4, !tbaa !11
  %26 = icmp ne i32 %25, 0
  br i1 %26, label %27, label %32

27:                                               ; preds = %24
  %28 = load ptr, ptr %6, align 8, !tbaa !13
  %29 = getelementptr i64, ptr %28, i64 0
  %30 = load i64, ptr %29, align 8, !tbaa !7
  store i64 %30, ptr %8, align 8, !tbaa !7
  %31 = call zeroext i1 @RB_NIL_P(i64 noundef %30) #24
  br i1 %31, label %32, label %33

32:                                               ; preds = %27, %24
  br label %36

33:                                               ; preds = %27
  %34 = load i64, ptr %8, align 8, !tbaa !7
  %35 = call i64 @rb_to_int(i64 noundef %34)
  br label %36

36:                                               ; preds = %33, %32
  %37 = phi i64 [ 1, %32 ], [ %35, %33 ]
  store i64 %37, ptr %8, align 8, !tbaa !7
  %38 = load i64, ptr %7, align 8, !tbaa !7
  %39 = load i64, ptr %8, align 8, !tbaa !7
  %40 = call ptr @MEMO_NEW(i64 noundef %39, i64 noundef 0, i64 noundef 0)
  %41 = ptrtoint ptr %40 to i64
  %42 = call i64 @enumerator_block_call(i64 noundef %38, ptr noundef @enumerator_with_index_i, i64 noundef %41)
  store i64 %42, ptr %4, align 8
  store i32 1, ptr %9, align 4
  br label %43

43:                                               ; preds = %36, %15
  call void @llvm.lifetime.end.p0(i64 8, ptr %8) #23
  %44 = load i64, ptr %4, align 8
  ret i64 %44
}