; Function Attrs: nounwind sspstrong uwtable
define internal i64 @enumerator_with_index(i32 noundef %0, ptr noundef %1, i64 noundef %2) #0 {
  %or.cond.i = icmp ugt i32 %0, 1
  br i1 %or.cond.i, label %4, label %rb_check_arity.exit

4:                                                ; preds = %3
  tail call void @rb_error_arity(i32 noundef %0, i32 noundef 0, i32 noundef 1) #19
  unreachable

rb_check_arity.exit:                              ; preds = %3
  %5 = tail call i32 @rb_block_given_p() #18
  %.not = icmp eq i32 %5, 0
  br i1 %.not, label %6, label %11

6:                                                ; preds = %rb_check_arity.exit
  %7 = tail call i64 @rb_frame_this_func() #18
  %8 = tail call i64 @rb_id2sym(i64 noundef %7) #18
  %9 = tail call i32 @rb_keyword_given_p() #18
  %10 = tail call range(i64 1, -7) i64 @rb_enumeratorize_with_size_kw(i64 noundef %2, i64 noundef %8, i32 noundef %0, ptr noundef %1, ptr noundef nonnull @enumerator_enum_size, i32 noundef %9)
  br label %24

11:                                               ; preds = %rb_check_arity.exit
  %.not9 = icmp eq i32 %0, 0
  br i1 %.not9, label %17, label %12

12:                                               ; preds = %11
  %13 = load i64, ptr %1, align 8, !tbaa !7
  %14 = icmp eq i64 %13, 4
  br i1 %14, label %17, label %15

15:                                               ; preds = %12
  %16 = tail call i64 @rb_to_int(i64 noundef %13) #18
  br label %17

17:                                               ; preds = %11, %12, %15
  %18 = phi i64 [ %16, %15 ], [ 1, %12 ], [ 1, %11 ]
  %19 = tail call i64 @rb_imemo_new(i32 noundef 5, i64 noundef 0, i64 noundef 40) #18
  %20 = inttoptr i64 %19 to ptr
  %21 = getelementptr inbounds nuw i8, ptr %20, i64 16
  store i64 %18, ptr %21, align 8, !tbaa !7
  %22 = getelementptr inbounds nuw i8, ptr %20, i64 24
  tail call void @llvm.memset.p0.i64(ptr noundef nonnull align 8 dereferenceable(16) %22, i8 0, i64 16, i1 false)
  %23 = tail call fastcc i64 @enumerator_block_call(i64 noundef %2, ptr noundef nonnull @enumerator_with_index_i, i64 noundef %19)
  br label %24

24:                                               ; preds = %17, %6
  %.0 = phi i64 [ %23, %17 ], [ %10, %6 ]
  ret i64 %.0
}